target datalayout = "e-m:e-p270:32:32-p271:32:32-p272:64:64-i64:64-i128:128-f80:128-n8:16:32:64-S128"
target triple = "x86_64-pc-linux-gnu"

%struct.FFIOContext = type { %struct.AVIOContext, ptr, i32, i32, i64, i64, i64, i64, i32, i32, i32, i64 }
%struct.AVIOContext = type { ptr, ptr, i32, ptr, ptr, ptr, ptr, ptr, ptr, i64, i32, i32, i32, i32, i32, i64, ptr, ptr, ptr, ptr, i32, i32, ptr, ptr, ptr, i32, ptr, i64, i64 }

; Function Attrs: nounwind uwtable
define void @avio_flush(ptr noundef %0) #0 {
  %2 = alloca ptr, align 8
  %3 = alloca i32, align 4
  store ptr %0, ptr %2, align 8, !tbaa !14
  call void @llvm.lifetime.start.p0(i64 4, ptr %3) #12
  %4 = load ptr, ptr %2, align 8, !tbaa !14
  %5 = getelementptr inbounds nuw %struct.AVIOContext, ptr %4, i32 0, i32 12
  %6 = load i32, ptr %5, align 8, !tbaa !46
  %7 = icmp ne i32 %6, 0
  br i1 %7, label %8, label %32

8:                                                ; preds = %1
  %9 = load ptr, ptr %2, align 8, !tbaa !14
  %10 = getelementptr inbounds nuw %struct.AVIOContext, ptr %9, i32 0, i32 3
  %11 = load ptr, ptr %10, align 8, !tbaa !23
  %12 = load ptr, ptr %2, align 8, !tbaa !14
  %13 = getelementptr inbounds nuw %struct.AVIOContext, ptr %12, i32 0, i32 26
  %14 = load ptr, ptr %13, align 8, !tbaa !24
  %15 = ptrtoint ptr %11 to i64
  %16 = ptrtoint ptr %14 to i64
  %17 = sub i64 %15, %16
  %18 = icmp sgt i64 0, %17
  br i1 %18, label %19, label %29

19:                                               ; preds = %8
  %20 = load ptr, ptr %2, align 8, !tbaa !14
  %21 = getelementptr inbounds nuw %struct.AVIOContext, ptr %20, i32 0, i32 3
  %22 = load ptr, ptr %21, align 8, !tbaa !23
  %23 = load ptr, ptr %2, align 8, !tbaa !14
  %24 = getelementptr inbounds nuw %struct.AVIOContext, ptr %23, i32 0, i32 26
  %25 = load ptr, ptr %24, align 8, !tbaa !24
  %26 = ptrtoint ptr %22 to i64
  %27 = ptrtoint ptr %25 to i64
  %28 = sub i64 %26, %27
  br label %30

29:                                               ; preds = %8
  br label %30

30:                                               ; preds = %29, %19
  %31 = phi i64 [ %28, %19 ], [ 0, %29 ]
  br label %33

32:                                               ; preds = %1
  br label %33

33:                                               ; preds = %32, %30
  %34 = phi i64 [ %31, %30 ], [ 0, %32 ]
  %35 = trunc i64 %34 to i32
  store i32 %35, ptr %3, align 4, !tbaa !11
  %36 = load ptr, ptr %2, align 8, !tbaa !14
  call void @flush_buffer(ptr noundef %36)
  %37 = load i32, ptr %3, align 4, !tbaa !11
  %38 = icmp ne i32 %37, 0
  br i1 %38, label %39, label %44

39:                                               ; preds = %33
  %40 = load ptr, ptr %2, align 8, !tbaa !14
  %41 = load i32, ptr %3, align 4, !tbaa !11
  %42 = sext i32 %41 to i64
  %43 = call i64 @avio_seek(ptr noundef %40, i64 noundef %42, i32 noundef 1)
  br label %44

44:                                               ; preds = %39, %33
  call void @llvm.lifetime.end.p0(i64 4, ptr %3) #12
  ret void
}

; Function Attrs: alwaysinline nounwind uwtable
define internal ptr @ffiocontext(ptr noundef %0) #5 {
  %2 = alloca ptr, align 8
  store ptr %0, ptr %2, align 8, !tbaa !14
  %3 = load ptr, ptr %2, align 8, !tbaa !14
  ret ptr %3
}

; Function Attrs: nounwind uwtable
define void @avio_write_marker(ptr noundef %0, i64 noundef %1, i32 noundef %2) #0 {
  %4 = alloca ptr, align 8
  %5 = alloca i64, align 8
  %6 = alloca i32, align 4
  %7 = alloca ptr, align 8
  %8 = alloca i32, align 4
  store ptr %0, ptr %4, align 8, !tbaa !14
  store i64 %1, ptr %5, align 8, !tbaa !53
  store i32 %2, ptr %6, align 4, !tbaa !11
  call void @llvm.lifetime.start.p0(i64 8, ptr %7) #12
  %9 = load ptr, ptr %4, align 8, !tbaa !14
  %10 = call ptr @ffiocontext(ptr noundef %9)
  store ptr %10, ptr %7, align 8, !tbaa !4
  %11 = load i32, ptr %6, align 4, !tbaa !11
  %12 = icmp eq i32 %11, 5
  br i1 %12, label %13, label %31

13:                                               ; preds = %3
  %14 = load ptr, ptr %4, align 8, !tbaa !14
  %15 = getelementptr inbounds nuw %struct.AVIOContext, ptr %14, i32 0, i32 3
  %16 = load ptr, ptr %15, align 8, !tbaa !23
  %17 = load ptr, ptr %4, align 8, !tbaa !14
  %18 = getelementptr inbounds nuw %struct.AVIOContext, ptr %17, i32 0, i32 1
  %19 = load ptr, ptr %18, align 8, !tbaa !16
  %20 = ptrtoint ptr %16 to i64
  %21 = ptrtoint ptr %19 to i64
  %22 = sub i64 %20, %21
  %23 = load ptr, ptr %4, align 8, !tbaa !14
  %24 = getelementptr inbounds nuw %struct.AVIOContext, ptr %23, i32 0, i32 14
  %25 = load i32, ptr %24, align 8, !tbaa !34
  %26 = sext i32 %25 to i64
  %27 = icmp sge i64 %22, %26
  br i1 %27, label %28, label %30

28:                                               ; preds = %13
  %29 = load ptr, ptr %4, align 8, !tbaa !14
  call void @avio_flush(ptr noundef %29)
  br label %30

30:                                               ; preds = %28, %13
  store i32 1, ptr %8, align 4
  br label %78

31:                                               ; preds = %3
  %32 = load ptr, ptr %4, align 8, !tbaa !14
  %33 = getelementptr inbounds nuw %struct.AVIOContext, ptr %32, i32 0, i32 24
  %34 = load ptr, ptr %33, align 8, !tbaa !41
  %35 = icmp ne ptr %34, null
  br i1 %35, label %37, label %36

36:                                               ; preds = %31
  store i32 1, ptr %8, align 4
  br label %78

37:                                               ; preds = %31
  %38 = load i32, ptr %6, align 4, !tbaa !11
  %39 = icmp eq i32 %38, 2
  br i1 %39, label %40, label %46

40:                                               ; preds = %37
  %41 = load ptr, ptr %4, align 8, !tbaa !14
  %42 = getelementptr inbounds nuw %struct.AVIOContext, ptr %41, i32 0, i32 25
  %43 = load i32, ptr %42, align 8, !tbaa !42
  %44 = icmp ne i32 %43, 0
  br i1 %44, label %45, label %46

45:                                               ; preds = %40
  store i32 3, ptr %6, align 4, !tbaa !11
  br label %46

46:                                               ; preds = %45, %40, %37
  %47 = load i32, ptr %6, align 4, !tbaa !11
  %48 = icmp eq i32 %47, 3
  br i1 %48, label %49, label %60

49:                                               ; preds = %46
  %50 = load ptr, ptr %7, align 8, !tbaa !4
  %51 = getelementptr inbounds nuw %struct.FFIOContext, ptr %50, i32 0, i32 3
  %52 = load i32, ptr %51, align 4, !tbaa !43
  %53 = icmp ne i32 %52, 0
  br i1 %53, label %54, label %60

54:                                               ; preds = %49
  %55 = load ptr, ptr %7, align 8, !tbaa !4
  %56 = getelementptr inbounds nuw %struct.FFIOContext, ptr %55, i32 0, i32 3
  %57 = load i32, ptr %56, align 4, !tbaa !43
  %58 = icmp ne i32 %57, 4
  br i1 %58, label %59, label %60

59:                                               ; preds = %54
  store i32 1, ptr %8, align 4
  br label %78

60:                                               ; preds = %54, %49, %46
  %61 = load i32, ptr %6, align 4, !tbaa !11
  switch i32 %61, label %70 [
    i32 0, label %62
    i32 4, label %62
  ]

62:                                               ; preds = %60, %60
  %63 = load i32, ptr %6, align 4, !tbaa !11
  %64 = load ptr, ptr %7, align 8, !tbaa !4
  %65 = getelementptr inbounds nuw %struct.FFIOContext, ptr %64, i32 0, i32 3
  %66 = load i32, ptr %65, align 4, !tbaa !43
  %67 = icmp eq i32 %63, %66
  br i1 %67, label %68, label %69

68:                                               ; preds = %62
  store i32 1, ptr %8, align 4
  br label %78

69:                                               ; preds = %62
  br label %70

70:                                               ; preds = %60, %69
  %71 = load ptr, ptr %4, align 8, !tbaa !14
  call void @avio_flush(ptr noundef %71)
  %72 = load i32, ptr %6, align 4, !tbaa !11
  %73 = load ptr, ptr %7, align 8, !tbaa !4
  %74 = getelementptr inbounds nuw %struct.FFIOContext, ptr %73, i32 0, i32 3
  store i32 %72, ptr %74, align 4, !tbaa !43
  %75 = load i64, ptr %5, align 8, !tbaa !53
  %76 = load ptr, ptr %7, align 8, !tbaa !4
  %77 = getelementptr inbounds nuw %struct.FFIOContext, ptr %76, i32 0, i32 4
  store i64 %75, ptr %77, align 8, !tbaa !44
  store i32 0, ptr %8, align 4
  br label %78

78:                                               ; preds = %70, %68, %59, %36, %30
  call void @llvm.lifetime.end.p0(i64 8, ptr %7) #12
  %79 = load i32, ptr %8, align 4
  switch i32 %79, label %81 [
    i32 0, label %80
    i32 1, label %80
  ]

80:                                               ; preds = %78, %78
  ret void

81:                                               ; preds = %78
  unreachable
}