; Function Attrs: nounwind uwtable
define void @avio_write_marker(ptr noundef %0, i64 noundef %1, i32 noundef %2) local_unnamed_addr #3 {
  %4 = icmp eq i32 %2, 5
  br i1 %4, label %5, label %30

5:                                                ; preds = %3
  %6 = getelementptr inbounds nuw i8, ptr %0, i64 24
  %7 = load ptr, ptr %6, align 8, !tbaa !16
  %8 = getelementptr inbounds nuw i8, ptr %0, i64 8
  %9 = load ptr, ptr %8, align 8, !tbaa !4
  %10 = ptrtoint ptr %7 to i64
  %11 = ptrtoint ptr %9 to i64
  %12 = sub i64 %10, %11
  %13 = getelementptr inbounds nuw i8, ptr %0, i64 96
  %14 = load i32, ptr %13, align 8, !tbaa !52
  %15 = sext i32 %14 to i64
  %.not24 = icmp slt i64 %12, %15
  br i1 %.not24, label %avio_flush.exit, label %16

16:                                               ; preds = %5
  %17 = getelementptr inbounds nuw i8, ptr %0, i64 88
  %18 = load i32, ptr %17, align 8, !tbaa !20
  %.not.i = icmp eq i32 %18, 0
  br i1 %.not.i, label %.thread.i, label %19

19:                                               ; preds = %16
  %20 = getelementptr inbounds nuw i8, ptr %0, i64 184
  %21 = load ptr, ptr %20, align 8, !tbaa !17
  %22 = ptrtoint ptr %21 to i64
  %23 = sub i64 %10, %22
  %24 = icmp slt i64 %23, 0
  br i1 %24, label %25, label %.thread.i

.thread.i:                                        ; preds = %19, %16
  tail call fastcc void @flush_buffer(ptr noundef nonnull %0)
  br label %avio_flush.exit

25:                                               ; preds = %19
  tail call fastcc void @flush_buffer(ptr noundef nonnull %0)
  %26 = and i64 %23, 4294967295
  %.not9.i = icmp eq i64 %26, 0
  br i1 %.not9.i, label %avio_flush.exit, label %27

27:                                               ; preds = %25
  %sext.i = shl i64 %23, 32
  %28 = ashr exact i64 %sext.i, 32
  %29 = tail call i64 @avio_seek(ptr noundef nonnull %0, i64 noundef %28, i32 noundef 1)
  br label %avio_flush.exit

30:                                               ; preds = %3
  %31 = getelementptr inbounds nuw i8, ptr %0, i64 168
  %32 = load ptr, ptr %31, align 8, !tbaa !28
  %.not = icmp eq ptr %32, null
  br i1 %.not, label %avio_flush.exit, label %33

33:                                               ; preds = %30
  switch i32 %2, label %.thread [
    i32 2, label %34
    i32 3, label %.thread32
    i32 0, label %39
    i32 4, label %39
  ]

34:                                               ; preds = %33
  %35 = getelementptr inbounds nuw i8, ptr %0, i64 176
  %36 = load i32, ptr %35, align 8, !tbaa !29
  %.not21 = icmp eq i32 %36, 0
  br i1 %.not21, label %.thread, label %.thread32

.thread32:                                        ; preds = %33, %34
  %37 = getelementptr inbounds nuw i8, ptr %0, i64 220
  %38 = load i32, ptr %37, align 4, !tbaa !30
  switch i32 %38, label %avio_flush.exit [
    i32 0, label %.thread
    i32 4, label %.thread
  ]

39:                                               ; preds = %33, %33
  %40 = getelementptr inbounds nuw i8, ptr %0, i64 220
  %41 = load i32, ptr %40, align 4, !tbaa !30
  %42 = icmp eq i32 %2, %41
  br i1 %42, label %avio_flush.exit, label %.thread

.thread:                                          ; preds = %33, %.thread32, %.thread32, %34, %39
  %.031 = phi i32 [ %2, %39 ], [ 2, %34 ], [ 3, %.thread32 ], [ 3, %.thread32 ], [ %2, %33 ]
  %43 = getelementptr inbounds nuw i8, ptr %0, i64 88
  %44 = load i32, ptr %43, align 8, !tbaa !20
  %.not.i25 = icmp eq i32 %44, 0
  br i1 %.not.i25, label %.thread.i26, label %45

45:                                               ; preds = %.thread
  %46 = getelementptr inbounds nuw i8, ptr %0, i64 24
  %47 = load ptr, ptr %46, align 8, !tbaa !16
  %48 = getelementptr inbounds nuw i8, ptr %0, i64 184
  %49 = load ptr, ptr %48, align 8, !tbaa !17
  %50 = ptrtoint ptr %47 to i64
  %51 = ptrtoint ptr %49 to i64
  %52 = sub i64 %50, %51
  %53 = icmp slt i64 %52, 0
  br i1 %53, label %54, label %.thread.i26

.thread.i26:                                      ; preds = %45, %.thread
  tail call fastcc void @flush_buffer(ptr noundef nonnull %0)
  br label %avio_flush.exit29

54:                                               ; preds = %45
  tail call fastcc void @flush_buffer(ptr noundef nonnull %0)
  %55 = and i64 %52, 4294967295
  %.not9.i27 = icmp eq i64 %55, 0
  br i1 %.not9.i27, label %avio_flush.exit29, label %56

56:                                               ; preds = %54
  %sext.i28 = shl i64 %52, 32
  %57 = ashr exact i64 %sext.i28, 32
  %58 = tail call i64 @avio_seek(ptr noundef nonnull %0, i64 noundef %57, i32 noundef 1)
  br label %avio_flush.exit29

avio_flush.exit29:                                ; preds = %.thread.i26, %54, %56
  %59 = getelementptr inbounds nuw i8, ptr %0, i64 220
  store i32 %.031, ptr %59, align 4, !tbaa !30
  %60 = getelementptr inbounds nuw i8, ptr %0, i64 224
  store i64 %1, ptr %60, align 8, !tbaa !31
  br label %avio_flush.exit

avio_flush.exit:                                  ; preds = %27, %25, %.thread.i, %39, %.thread32, %30, %5, %avio_flush.exit29
  ret void
}